target datalayout = "e-m:e-p270:32:32-p271:32:32-p272:64:64-i64:64-i128:128-f80:128-n8:16:32:64-S128"
target triple = "x86_64-pc-linux-gnu"

%struct.jit_State = type { %struct.GCtrace, ptr, ptr, ptr, ptr, ptr, ptr, i32, i32, i32, i8, i8, %struct.IRType1, i8, %struct.FoldState, ptr, i32, i32, i32, i32, i32, i32, i32, [1 x i32], [5 x %union.TValue], [3 x %union.TValue], ptr, i32, i32, i32, i32, ptr, ptr, i32, i32, i8, ptr, i32, i32, i16, [101 x i16], [258 x i32], [15 x i32], [16 x ptr], [64 x %struct.HotPenalty], i32, [16 x %struct.BPropEntry], i32, %struct.ScEvEntry, ptr, i32, i32, i32, ptr, i32, i32, ptr, ptr, ptr, i64, i64, %union.TValue, ptr, i32, i32 }
%struct.GCtrace = type { %struct.GCRef, i8, i8, i16, i32, i32, %struct.GCRef, ptr, i32, i32, ptr, ptr, %struct.GCRef, %struct.MRef, i32, i32, ptr, i32, i16, i16, i16, i16, i16, i16, i16, i8, i8, i8, i8 }
%struct.GCRef = type { i64 }
%struct.MRef = type { i64 }
%struct.IRType1 = type { i8 }
%struct.FoldState = type { %union.IRIns, [2 x %union.IRIns], [2 x %union.IRIns] }
%union.IRIns = type { %struct.GCRef }
%struct.HotPenalty = type { %struct.MRef, i16, i16 }
%struct.BPropEntry = type { i16, i16, i32 }
%struct.ScEvEntry = type { %struct.MRef, i16, i16, i16, i16, %struct.IRType1, i8 }
%union.TValue = type { i64 }
%struct.anon.1 = type { i16, i16, i16, i16 }
%struct.anon.2 = type { i32, %struct.IRType1, i8, i8, i8 }
%struct.lua_State = type { %struct.GCRef, i8, i8, i8, i8, %struct.MRef, %struct.GCRef, ptr, ptr, %struct.MRef, %struct.MRef, %struct.GCRef, %struct.GCRef, ptr, i32 }

; Function Attrs: alwaysinline nounwind uwtable
define internal void @lj_ir_set_(ptr noundef %0, i16 noundef zeroext %1, i16 noundef zeroext %2, i16 noundef zeroext %3) #3 {
  %5 = alloca ptr, align 8
  %6 = alloca i16, align 2
  %7 = alloca i16, align 2
  %8 = alloca i16, align 2
  store ptr %0, ptr %5, align 8, !tbaa !4
  store i16 %1, ptr %6, align 2, !tbaa !13
  store i16 %2, ptr %7, align 2, !tbaa !13
  store i16 %3, ptr %8, align 2, !tbaa !13
  %9 = load i16, ptr %6, align 2, !tbaa !13
  %10 = load ptr, ptr %5, align 8, !tbaa !4
  %11 = getelementptr inbounds nuw %struct.jit_State, ptr %10, i32 0, i32 14
  %12 = getelementptr inbounds nuw %struct.FoldState, ptr %11, i32 0, i32 0
  %13 = getelementptr inbounds nuw %struct.anon.1, ptr %12, i32 0, i32 2
  store i16 %9, ptr %13, align 4, !tbaa !15
  %14 = load i16, ptr %7, align 2, !tbaa !13
  %15 = load ptr, ptr %5, align 8, !tbaa !4
  %16 = getelementptr inbounds nuw %struct.jit_State, ptr %15, i32 0, i32 14
  %17 = getelementptr inbounds nuw %struct.FoldState, ptr %16, i32 0, i32 0
  %18 = getelementptr inbounds nuw %struct.anon.1, ptr %17, i32 0, i32 0
  store i16 %14, ptr %18, align 8, !tbaa !15
  %19 = load i16, ptr %8, align 2, !tbaa !13
  %20 = load ptr, ptr %5, align 8, !tbaa !4
  %21 = getelementptr inbounds nuw %struct.jit_State, ptr %20, i32 0, i32 14
  %22 = getelementptr inbounds nuw %struct.FoldState, ptr %21, i32 0, i32 0
  %23 = getelementptr inbounds nuw %struct.anon.1, ptr %22, i32 0, i32 1
  store i16 %19, ptr %23, align 2, !tbaa !15
  ret void
}

; Function Attrs: alwaysinline nounwind uwtable
define internal i32 @numberVint(ptr noundef %0) #3 {
  %2 = alloca ptr, align 8
  store ptr %0, ptr %2, align 8, !tbaa !11
  %3 = load ptr, ptr %2, align 8, !tbaa !11
  %4 = load double, ptr %3, align 8, !tbaa !15
  %5 = fptosi double %4 to i32
  ret i32 %5
}

; Function Attrs: nounwind uwtable
define internal void @rec_idx_abc(ptr noundef %0, i32 noundef %1, i32 noundef %2, i32 noundef %3) #0 {
  %5 = alloca ptr, align 8
  %6 = alloca i32, align 4
  %7 = alloca i32, align 4
  %8 = alloca i32, align 4
  %9 = alloca i32, align 4
  %10 = alloca ptr, align 8
  %11 = alloca i32, align 4
  %12 = alloca i32, align 4
  %13 = alloca i32, align 4
  %14 = alloca i32, align 4
  %15 = alloca i32, align 4
  store ptr %0, ptr %5, align 8, !tbaa !4
  store i32 %1, ptr %6, align 4, !tbaa !9
  store i32 %2, ptr %7, align 4, !tbaa !9
  store i32 %3, ptr %8, align 4, !tbaa !9
  %16 = load ptr, ptr %5, align 8, !tbaa !4
  %17 = getelementptr inbounds nuw %struct.jit_State, ptr %16, i32 0, i32 7
  %18 = load i32, ptr %17, align 8, !tbaa !39
  %19 = and i32 %18, 12582912
  %20 = icmp eq i32 %19, 12582912
  br i1 %20, label %21, label %188

21:                                               ; preds = %4
  call void @llvm.lifetime.start.p0(i64 4, ptr %9) #9
  %22 = load i32, ptr %7, align 4, !tbaa !9
  %23 = trunc i32 %22 to i16
  %24 = zext i16 %23 to i32
  store i32 %24, ptr %9, align 4, !tbaa !9
  call void @llvm.lifetime.start.p0(i64 8, ptr %10) #9
  %25 = load ptr, ptr %5, align 8, !tbaa !4
  %26 = getelementptr inbounds nuw %struct.jit_State, ptr %25, i32 0, i32 0
  %27 = getelementptr inbounds nuw %struct.GCtrace, ptr %26, i32 0, i32 7
  %28 = load ptr, ptr %27, align 8, !tbaa !45
  %29 = load i32, ptr %9, align 4, !tbaa !9
  %30 = zext i32 %29 to i64
  %31 = getelementptr inbounds nuw %union.IRIns, ptr %28, i64 %30
  store ptr %31, ptr %10, align 8, !tbaa !46
  call void @llvm.lifetime.start.p0(i64 4, ptr %11) #9
  store i32 0, ptr %11, align 4, !tbaa !9
  call void @llvm.lifetime.start.p0(i64 4, ptr %12) #9
  store i32 0, ptr %12, align 4, !tbaa !9
  %32 = load ptr, ptr %10, align 8, !tbaa !46
  %33 = getelementptr inbounds nuw %struct.anon.2, ptr %32, i32 0, i32 2
  %34 = load i8, ptr %33, align 1, !tbaa !15
  %35 = zext i8 %34 to i32
  %36 = icmp eq i32 %35, 41
  br i1 %36, label %37, label %67

37:                                               ; preds = %21
  %38 = load ptr, ptr %10, align 8, !tbaa !46
  %39 = getelementptr inbounds nuw %struct.anon.1, ptr %38, i32 0, i32 1
  %40 = load i16, ptr %39, align 2, !tbaa !15
  %41 = zext i16 %40 to i32
  %42 = icmp slt i32 %41, 32768
  br i1 %42, label %43, label %67

43:                                               ; preds = %37
  %44 = load ptr, ptr %10, align 8, !tbaa !46
  %45 = getelementptr inbounds nuw %struct.anon.1, ptr %44, i32 0, i32 1
  %46 = load i16, ptr %45, align 2, !tbaa !15
  %47 = zext i16 %46 to i32
  store i32 %47, ptr %12, align 4, !tbaa !9
  %48 = load ptr, ptr %5, align 8, !tbaa !4
  %49 = getelementptr inbounds nuw %struct.jit_State, ptr %48, i32 0, i32 0
  %50 = getelementptr inbounds nuw %struct.GCtrace, ptr %49, i32 0, i32 7
  %51 = load ptr, ptr %50, align 8, !tbaa !45
  %52 = load i32, ptr %12, align 4, !tbaa !9
  %53 = zext i32 %52 to i64
  %54 = getelementptr inbounds nuw %union.IRIns, ptr %51, i64 %53
  %55 = load i32, ptr %54, align 8, !tbaa !15
  store i32 %55, ptr %11, align 4, !tbaa !9
  %56 = load ptr, ptr %10, align 8, !tbaa !46
  %57 = getelementptr inbounds nuw %struct.anon.1, ptr %56, i32 0, i32 0
  %58 = load i16, ptr %57, align 8, !tbaa !15
  %59 = zext i16 %58 to i32
  store i32 %59, ptr %9, align 4, !tbaa !9
  %60 = load ptr, ptr %5, align 8, !tbaa !4
  %61 = getelementptr inbounds nuw %struct.jit_State, ptr %60, i32 0, i32 0
  %62 = getelementptr inbounds nuw %struct.GCtrace, ptr %61, i32 0, i32 7
  %63 = load ptr, ptr %62, align 8, !tbaa !45
  %64 = load i32, ptr %9, align 4, !tbaa !9
  %65 = zext i32 %64 to i64
  %66 = getelementptr inbounds nuw %union.IRIns, ptr %63, i64 %65
  store ptr %66, ptr %10, align 8, !tbaa !46
  br label %67

67:                                               ; preds = %43, %37, %21
  %68 = load i32, ptr %9, align 4, !tbaa !9
  %69 = load ptr, ptr %5, align 8, !tbaa !4
  %70 = getelementptr inbounds nuw %struct.jit_State, ptr %69, i32 0, i32 48
  %71 = getelementptr inbounds nuw %struct.ScEvEntry, ptr %70, i32 0, i32 1
  %72 = load i16, ptr %71, align 8, !tbaa !76
  %73 = zext i16 %72 to i32
  %74 = icmp eq i32 %68, %73
  br i1 %74, label %75, label %184

75:                                               ; preds = %67
  call void @llvm.lifetime.start.p0(i64 4, ptr %13) #9
  %76 = load ptr, ptr %5, align 8, !tbaa !4
  %77 = getelementptr inbounds nuw %struct.jit_State, ptr %76, i32 0, i32 2
  %78 = load ptr, ptr %77, align 8, !tbaa !51
  %79 = getelementptr inbounds nuw %struct.lua_State, ptr %78, i32 0, i32 7
  %80 = load ptr, ptr %79, align 8, !tbaa !52
  %81 = load ptr, ptr %5, align 8, !tbaa !4
  %82 = getelementptr inbounds nuw %struct.jit_State, ptr %81, i32 0, i32 9
  %83 = load i32, ptr %82, align 8, !tbaa !43
  %84 = zext i32 %83 to i64
  %85 = sub i64 0, %84
  %86 = getelementptr inbounds %union.TValue, ptr %80, i64 %85
  %87 = load ptr, ptr %10, align 8, !tbaa !46
  %88 = getelementptr inbounds nuw %struct.anon.1, ptr %87, i32 0, i32 0
  %89 = load i16, ptr %88, align 8, !tbaa !15
  %90 = zext i16 %89 to i32
  %91 = add nsw i32 %90, 1
  %92 = sext i32 %91 to i64
  %93 = getelementptr inbounds %union.TValue, ptr %86, i64 %92
  %94 = call i32 @numberVint(ptr noundef %93)
  store i32 %94, ptr %13, align 4, !tbaa !9
  %95 = load i32, ptr %13, align 4, !tbaa !9
  %96 = sext i32 %95 to i64
  %97 = load i32, ptr %11, align 4, !tbaa !9
  %98 = sext i32 %97 to i64
  %99 = add i64 %96, %98
  %100 = load i32, ptr %8, align 4, !tbaa !9
  %101 = zext i32 %100 to i64
  %102 = icmp ult i64 %99, %101
  br i1 %102, label %103, label %180

103:                                              ; preds = %75
  call void @llvm.lifetime.start.p0(i64 4, ptr %14) #9
  %104 = load i32, ptr %6, align 4, !tbaa !9
  %105 = trunc i32 %104 to i16
  %106 = zext i16 %105 to i32
  %107 = icmp slt i32 %106, 32768
  %108 = select i1 %107, i32 20, i32 5
  %109 = or i32 128, %108
  %110 = or i32 2560, %109
  store i32 %110, ptr %14, align 4, !tbaa !9
  %111 = load ptr, ptr %5, align 8, !tbaa !4
  %112 = load i32, ptr %14, align 4, !tbaa !9
  %113 = trunc i32 %112 to i16
  %114 = load i32, ptr %6, align 4, !tbaa !9
  %115 = trunc i32 %114 to i16
  %116 = load i32, ptr %11, align 4, !tbaa !9
  %117 = icmp eq i32 %116, 0
  br i1 %117, label %118, label %124

118:                                              ; preds = %103
  %119 = load ptr, ptr %5, align 8, !tbaa !4
  %120 = getelementptr inbounds nuw %struct.jit_State, ptr %119, i32 0, i32 48
  %121 = getelementptr inbounds nuw %struct.ScEvEntry, ptr %120, i32 0, i32 3
  %122 = load i16, ptr %121, align 4, !tbaa !157
  %123 = zext i16 %122 to i32
  br label %134

124:                                              ; preds = %103
  %125 = load ptr, ptr %5, align 8, !tbaa !4
  %126 = load ptr, ptr %5, align 8, !tbaa !4
  %127 = getelementptr inbounds nuw %struct.jit_State, ptr %126, i32 0, i32 48
  %128 = getelementptr inbounds nuw %struct.ScEvEntry, ptr %127, i32 0, i32 3
  %129 = load i16, ptr %128, align 4, !tbaa !157
  %130 = load i32, ptr %12, align 4, !tbaa !9
  %131 = trunc i32 %130 to i16
  call void @lj_ir_set_(ptr noundef %125, i16 noundef zeroext 10515, i16 noundef zeroext %129, i16 noundef zeroext %131)
  %132 = load ptr, ptr %5, align 8, !tbaa !4
  %133 = call i32 @lj_opt_fold(ptr noundef %132)
  br label %134

134:                                              ; preds = %124, %118
  %135 = phi i32 [ %123, %118 ], [ %133, %124 ]
  %136 = trunc i32 %135 to i16
  call void @lj_ir_set_(ptr noundef %111, i16 noundef zeroext %113, i16 noundef zeroext %115, i16 noundef zeroext %136)
  %137 = load ptr, ptr %5, align 8, !tbaa !4
  %138 = call i32 @lj_opt_fold(ptr noundef %137)
  %139 = load ptr, ptr %5, align 8, !tbaa !4
  %140 = getelementptr inbounds nuw %struct.jit_State, ptr %139, i32 0, i32 48
  %141 = getelementptr inbounds nuw %struct.ScEvEntry, ptr %140, i32 0, i32 6
  %142 = load i8, ptr %141, align 1, !tbaa !186
  %143 = zext i8 %142 to i32
  %144 = icmp ne i32 %143, 0
  br i1 %144, label %145, label %169

145:                                              ; preds = %134
  %146 = load ptr, ptr %5, align 8, !tbaa !4
  %147 = getelementptr inbounds nuw %struct.jit_State, ptr %146, i32 0, i32 48
  %148 = getelementptr inbounds nuw %struct.ScEvEntry, ptr %147, i32 0, i32 2
  %149 = load i16, ptr %148, align 2, !tbaa !180
  %150 = zext i16 %149 to i32
  %151 = icmp ne i32 %150, 0
  br i1 %151, label %152, label %169

152:                                              ; preds = %145
  %153 = load ptr, ptr %5, align 8, !tbaa !4
  %154 = getelementptr inbounds nuw %struct.jit_State, ptr %153, i32 0, i32 0
  %155 = getelementptr inbounds nuw %struct.GCtrace, ptr %154, i32 0, i32 7
  %156 = load ptr, ptr %155, align 8, !tbaa !45
  %157 = load ptr, ptr %5, align 8, !tbaa !4
  %158 = getelementptr inbounds nuw %struct.jit_State, ptr %157, i32 0, i32 48
  %159 = getelementptr inbounds nuw %struct.ScEvEntry, ptr %158, i32 0, i32 2
  %160 = load i16, ptr %159, align 2, !tbaa !180
  %161 = zext i16 %160 to i64
  %162 = getelementptr inbounds nuw %union.IRIns, ptr %156, i64 %161
  %163 = load i32, ptr %162, align 8, !tbaa !15
  %164 = sext i32 %163 to i64
  %165 = load i32, ptr %11, align 4, !tbaa !9
  %166 = sext i32 %165 to i64
  %167 = add nsw i64 %164, %166
  %168 = icmp sge i64 %167, 0
  br i1 %168, label %179, label %169

169:                                              ; preds = %152, %145, %134
  %170 = load ptr, ptr %5, align 8, !tbaa !4
  %171 = load i32, ptr %14, align 4, !tbaa !9
  %172 = trunc i32 %171 to i16
  %173 = load i32, ptr %6, align 4, !tbaa !9
  %174 = trunc i32 %173 to i16
  %175 = load i32, ptr %7, align 4, !tbaa !9
  %176 = trunc i32 %175 to i16
  call void @lj_ir_set_(ptr noundef %170, i16 noundef zeroext %172, i16 noundef zeroext %174, i16 noundef zeroext %176)
  %177 = load ptr, ptr %5, align 8, !tbaa !4
  %178 = call i32 @lj_opt_fold(ptr noundef %177)
  br label %179

179:                                              ; preds = %169, %152
  store i32 1, ptr %15, align 4
  call void @llvm.lifetime.end.p0(i64 4, ptr %14) #9
  br label %181

180:                                              ; preds = %75
  store i32 0, ptr %15, align 4
  br label %181

181:                                              ; preds = %180, %179
  call void @llvm.lifetime.end.p0(i64 4, ptr %13) #9
  %182 = load i32, ptr %15, align 4
  switch i32 %182, label %185 [
    i32 0, label %183
  ]

183:                                              ; preds = %181
  br label %184

184:                                              ; preds = %183, %67
  store i32 0, ptr %15, align 4
  br label %185

185:                                              ; preds = %184, %181
  call void @llvm.lifetime.end.p0(i64 4, ptr %12) #9
  call void @llvm.lifetime.end.p0(i64 4, ptr %11) #9
  call void @llvm.lifetime.end.p0(i64 8, ptr %10) #9
  call void @llvm.lifetime.end.p0(i64 4, ptr %9) #9
  %186 = load i32, ptr %15, align 4
  switch i32 %186, label %197 [
    i32 0, label %187
    i32 1, label %196
  ]

187:                                              ; preds = %185
  br label %188

188:                                              ; preds = %187, %4
  %189 = load ptr, ptr %5, align 8, !tbaa !4
  %190 = load i32, ptr %6, align 4, !tbaa !9
  %191 = trunc i32 %190 to i16
  %192 = load i32, ptr %7, align 4, !tbaa !9
  %193 = trunc i32 %192 to i16
  call void @lj_ir_set_(ptr noundef %189, i16 noundef zeroext 2707, i16 noundef zeroext %191, i16 noundef zeroext %193)
  %194 = load ptr, ptr %5, align 8, !tbaa !4
  %195 = call i32 @lj_opt_fold(ptr noundef %194)
  br label %196

196:                                              ; preds = %188, %185
  ret void

197:                                              ; preds = %185
  unreachable
}