; Function Attrs: nounwind uwtable
define internal fastcc void @rec_idx_abc(ptr noundef initializes((184, 190)) %0, i32 noundef %1, i32 noundef %2, i32 noundef %3) unnamed_addr #0 {
  %5 = getelementptr inbounds nuw i8, ptr %0, i64 168
  %6 = load i32, ptr %5, align 8, !tbaa !33
  %7 = and i32 %6, 12582912
  %8 = icmp eq i32 %7, 12582912
  %9 = trunc i32 %2 to i16
  br i1 %8, label %10, label %.critedge.thread

10:                                               ; preds = %4
  %11 = and i32 %2, 65535
  %12 = getelementptr inbounds nuw i8, ptr %0, i64 32
  %13 = load ptr, ptr %12, align 8, !tbaa !38
  %14 = zext nneg i32 %11 to i64
  %15 = getelementptr inbounds nuw %union.IRIns, ptr %13, i64 %14
  %16 = getelementptr inbounds nuw i8, ptr %15, i64 5
  %17 = load i8, ptr %16, align 1, !tbaa !4
  %18 = icmp eq i8 %17, 41
  br i1 %18, label %19, label %31

19:                                               ; preds = %10
  %20 = getelementptr inbounds nuw i8, ptr %15, i64 2
  %21 = load i16, ptr %20, align 2, !tbaa !4
  %22 = icmp sgt i16 %21, -1
  br i1 %22, label %23, label %31

23:                                               ; preds = %19
  %24 = zext nneg i16 %21 to i64
  %25 = getelementptr inbounds nuw %union.IRIns, ptr %13, i64 %24
  %26 = load i32, ptr %25, align 8, !tbaa !4
  %27 = load i16, ptr %15, align 8, !tbaa !4
  %28 = zext i16 %27 to i32
  %29 = zext i16 %27 to i64
  %30 = getelementptr inbounds nuw %union.IRIns, ptr %13, i64 %29
  br label %31

31:                                               ; preds = %23, %19, %10
  %.049 = phi i32 [ %26, %23 ], [ 0, %19 ], [ 0, %10 ]
  %.048 = phi i16 [ %21, %23 ], [ 0, %19 ], [ 0, %10 ]
  %.047 = phi ptr [ %30, %23 ], [ %15, %19 ], [ %15, %10 ]
  %.046 = phi i32 [ %28, %23 ], [ %11, %19 ], [ %11, %10 ]
  %32 = getelementptr inbounds nuw i8, ptr %0, i64 2992
  %33 = load i16, ptr %32, align 8, !tbaa !67
  %34 = zext i16 %33 to i32
  %35 = icmp eq i32 %.046, %34
  br i1 %35, label %36, label %.critedge.thread

36:                                               ; preds = %31
  %37 = getelementptr inbounds nuw i8, ptr %0, i64 128
  %38 = load ptr, ptr %37, align 8, !tbaa !44
  %39 = getelementptr inbounds nuw i8, ptr %38, i64 32
  %40 = load ptr, ptr %39, align 8, !tbaa !45
  %41 = getelementptr inbounds nuw i8, ptr %0, i64 176
  %42 = load i32, ptr %41, align 8, !tbaa !35
  %43 = zext i32 %42 to i64
  %44 = sub nsw i64 0, %43
  %45 = getelementptr inbounds %union.TValue, ptr %40, i64 %44
  %46 = load i16, ptr %.047, align 8, !tbaa !4
  %47 = zext i16 %46 to i64
  %48 = getelementptr inbounds nuw %union.TValue, ptr %45, i64 %47
  %49 = getelementptr inbounds nuw i8, ptr %48, i64 8
  %50 = load double, ptr %49, align 8, !tbaa !4
  %51 = fptosi double %50 to i32
  %52 = sext i32 %51 to i64
  %53 = sext i32 %.049 to i64
  %54 = add nsw i64 %52, %53
  %55 = zext i32 %3 to i64
  %.not52 = icmp ult i64 %54, %55
  br i1 %.not52, label %56, label %.critedge.thread

56:                                               ; preds = %36
  %57 = trunc i32 %1 to i16
  %58 = and i32 %1, 32768
  %.not.not = icmp eq i32 %58, 0
  %59 = select i1 %.not.not, i16 2708, i16 2693
  %60 = icmp eq i32 %.049, 0
  %61 = getelementptr inbounds nuw i8, ptr %0, i64 2996
  %62 = load i16, ptr %61, align 4, !tbaa !159
  br i1 %60, label %69, label %63

63:                                               ; preds = %56
  %64 = getelementptr inbounds nuw i8, ptr %0, i64 184
  %65 = getelementptr inbounds nuw i8, ptr %0, i64 188
  store i16 10515, ptr %65, align 4, !tbaa !4
  store i16 %62, ptr %64, align 8, !tbaa !4
  %66 = getelementptr inbounds nuw i8, ptr %0, i64 186
  store i16 %.048, ptr %66, align 2, !tbaa !4
  %67 = tail call i32 @lj_opt_fold(ptr noundef nonnull %0) #8
  %68 = trunc i32 %67 to i16
  br label %69

69:                                               ; preds = %56, %63
  %70 = phi i16 [ %68, %63 ], [ %62, %56 ]
  %71 = getelementptr inbounds nuw i8, ptr %0, i64 184
  %72 = getelementptr inbounds nuw i8, ptr %0, i64 188
  store i16 %59, ptr %72, align 4, !tbaa !4
  store i16 %57, ptr %71, align 8, !tbaa !4
  %73 = getelementptr inbounds nuw i8, ptr %0, i64 186
  store i16 %70, ptr %73, align 2, !tbaa !4
  %74 = tail call i32 @lj_opt_fold(ptr noundef nonnull %0) #8
  %75 = getelementptr inbounds nuw i8, ptr %0, i64 3001
  %76 = load i8, ptr %75, align 1, !tbaa !187
  %.not = icmp eq i8 %76, 0
  br i1 %.not, label %88, label %77

77:                                               ; preds = %69
  %78 = getelementptr inbounds nuw i8, ptr %0, i64 2994
  %79 = load i16, ptr %78, align 2, !tbaa !184
  %.not51 = icmp eq i16 %79, 0
  br i1 %.not51, label %88, label %80

80:                                               ; preds = %77
  %81 = load ptr, ptr %12, align 8, !tbaa !38
  %82 = zext i16 %79 to i64
  %83 = getelementptr inbounds nuw %union.IRIns, ptr %81, i64 %82
  %84 = load i32, ptr %83, align 8, !tbaa !4
  %85 = sext i32 %84 to i64
  %86 = add nsw i64 %85, %53
  %87 = icmp sgt i64 %86, -1
  br i1 %87, label %.critedge, label %88

88:                                               ; preds = %80, %77, %69
  store i16 %59, ptr %72, align 4, !tbaa !4
  store i16 %57, ptr %71, align 8, !tbaa !4
  store i16 %9, ptr %73, align 2, !tbaa !4
  br label %.critedge.sink.split

.critedge.thread:                                 ; preds = %4, %31, %36
  %89 = trunc i32 %1 to i16
  %90 = getelementptr inbounds nuw i8, ptr %0, i64 184
  %91 = getelementptr inbounds nuw i8, ptr %0, i64 188
  store i16 2707, ptr %91, align 4, !tbaa !4
  store i16 %89, ptr %90, align 8, !tbaa !4
  %92 = getelementptr inbounds nuw i8, ptr %0, i64 186
  store i16 %9, ptr %92, align 2, !tbaa !4
  br label %.critedge.sink.split

.critedge.sink.split:                             ; preds = %.critedge.thread, %88
  %93 = tail call i32 @lj_opt_fold(ptr noundef nonnull %0) #8
  br label %.critedge

.critedge:                                        ; preds = %.critedge.sink.split, %80
  ret void
}